target datalayout = "e-m:e-p270:32:32-p271:32:32-p272:64:64-i64:64-i128:128-f80:128-n8:16:32:64-S128"
target triple = "x86_64-unknown-linux-gnu"

%"class.sat::literal" = type { i32 }
%class.symbol = type { ptr }
%class.vector = type { ptr }
%"class.euf::solver" = type { %"class.sat::extension", %"class.euf::th_internalizer", %"class.euf::th_decompile", %"struct.sat::clause_eh", %"class.std::function", %"class.std::function.3", ptr, ptr, %"class.euf::relevancy", %struct.smt_params, %"struct.euf::solver::local_search_config", %"class.euf::egraph", %class.trail_stack, %"struct.euf::solver::stats", %class.th_rewriter, %class.ref_vector.28, ptr, ptr, ptr, %class.scoped_ptr, ptr, ptr, ptr, i32, %"class.std::__cxx11::basic_string", %class.ptr_vector.26, %class.ptr_vector.26, %class.ptr_vector.55, %class.svector.57, %class.svector.59, %class.svector, i32, %class.svector.7, %class.svector.61, %class.scoped_ptr_vector.63, %class.ptr_vector.64, ptr, ptr, i8, %class.ast_pp_util, i8, [7 x i8], %"class.euf::smt_proof_checker", %class.svector, %class.svector.176, %class.svector.176, %class.svector.176, i32, i32, i32, i32, i32, i32, i32, i32, %class.symbol, %class.symbol, %class.ref_vector, %class.ref_vector, %class.vector.178, %class.ref_vector, %class.obj_map.179, %class.ref, %class.scoped_ptr.184 }
%"class.sat::extension" = type { ptr, i8, i32, %class.symbol, ptr }
%"class.euf::th_internalizer" = type { ptr, %class.ptr_vector, %class.svector.1 }
%class.ptr_vector = type { %class.vector.0 }
%class.vector.0 = type { ptr }
%class.svector.1 = type { %class.vector.2 }
%class.vector.2 = type { ptr }
%"class.euf::th_decompile" = type { ptr }
%"struct.sat::clause_eh" = type { ptr }
%"class.std::function" = type { %"class.std::_Function_base", ptr }
%"class.std::_Function_base" = type { %"union.std::_Any_data", ptr }
%"union.std::_Any_data" = type { %"union.std::_Nocopy_types" }
%"union.std::_Nocopy_types" = type { { i64, i64 } }
%"class.std::function.3" = type { %"class.std::_Function_base", ptr }
%"class.euf::relevancy" = type { ptr, i8, %class.svector.5, %class.svector.7, i32, %class.svector.9, %"class.sat::clause_allocator", %class.ptr_vector.15, %class.svector.9, %class.vector.17, i32, %class.svector.18, %class.ptr_vector, %class.ptr_vector }
%class.svector.5 = type { %class.vector.6 }
%class.vector.6 = type { ptr }
%"class.sat::clause_allocator" = type { %class.sat_allocator, %class.id_gen }
%class.sat_allocator = type { ptr, i64, %class.ptr_vector.11, ptr, [65 x %class.ptr_vector.13] }
%class.ptr_vector.11 = type { %class.vector.12 }
%class.vector.12 = type { ptr }
%class.ptr_vector.13 = type { %class.vector.14 }
%class.vector.14 = type { ptr }
%class.id_gen = type { i32, %class.svector.7 }
%class.ptr_vector.15 = type { %class.vector.16 }
%class.vector.16 = type { ptr }
%class.svector.9 = type { %class.vector.10 }
%class.vector.10 = type { ptr }
%class.vector.17 = type { ptr }
%class.svector.18 = type { %class.vector.19 }
%class.vector.19 = type { ptr }
%struct.smt_params = type { %struct.preprocessor_params.base, %struct.dyn_ack_params, %struct.qi_params, %struct.theory_arith_params.base, i8, %struct.theory_array_params.base, %struct.theory_bv_params, %struct.theory_str_params.base, %struct.theory_seq_params, %struct.theory_pb_params.base, %struct.theory_datatype_params, i8, i8, i8, i8, i8, i8, i32, i8, i32, double, double, i32, i32, i32, i32, i32, i8, i32, i32, i32, i32, i32, i32, i8, i32, i8, i8, i8, i8, i8, %class.symbol, i32, i32, i8, i8, i8, i8, i32, i8, i32, i32, double, i8, double, double, i32, i8, i32, i32, double, i32, i32, i32, i32, i32, double, i8, i8, i8, %class.symbol, i8, i8, i8, i8, i8, i8, i32, i8, i8, i8, i8, i8, i8, i8, i8, i8, double, i8, %class.symbol }
%struct.preprocessor_params.base = type <{ %struct.pattern_inference_params.base, %struct.bit_blaster_params, i32, i32, i8, i8, i8, i8, i8, i8, i8, i8, i8, i8, i8, i8, i8, i8, i8, i8, i8, i8, i8 }>
%struct.pattern_inference_params.base = type <{ i8, [3 x i8], i32, i8, i8, [2 x i8], i32, i8, [3 x i8], i32, i32, i8, [3 x i8], i32, i8, i8 }>
%struct.bit_blaster_params = type { i8, i8 }
%struct.dyn_ack_params = type { i32, i8, double, i32, i32, double }
%struct.qi_params = type { %"class.std::__cxx11::basic_string", %"class.std::__cxx11::basic_string", double, double, i32, i32, i8, i32, i32, i8, i8, i32, i8, i8, i8, i8, i32, i32, i32, i8, i32, ptr }
%struct.theory_arith_params.base = type <{ i8, i8, [2 x i8], i32, i8, [3 x i8], i32, i8, [3 x i8], i32, i8, i8, [2 x i8], i32, i32, i8, i8, [2 x i8], i32, i32, i8, [3 x i8], i32, i32, i8, [3 x i8], double, double, i8, [3 x i8], i32, i8, i8, i8, i8, i8, [3 x i8], i32, i32, i8, [3 x i8], i32, i8, i8, i8, i8, i8, i8, [2 x i8], i32, i8, i8, [2 x i8], i32, i8, [3 x i8], i32, i8, i8, i8 }>
%struct.theory_array_params.base = type <{ i8, i8, [2 x i8], i32, i8, i8, [2 x i8], i32, i8, i8, i8, i8, i32, i8 }>
%struct.theory_bv_params = type { i32, i8, i8, i8, i8, i32, i8, i8, i8, i8, i32 }
%struct.theory_str_params.base = type <{ i8, i8, i8, i8, i8, i8, i8, i8, double, i32, i32, i32, i32, i32, i8, i8 }>
%struct.theory_seq_params = type { i8, i8, i32, i32 }
%struct.theory_pb_params.base = type <{ i32, i8 }>
%struct.theory_datatype_params = type { i32 }
%"struct.euf::solver::local_search_config" = type { double, i32, i32, i32, double }
%"class.euf::egraph" = type { ptr, %class.svector.20, %"class.euf::etable", %class.region, %class.scoped_ptr_vector, %class.svector.24, %class.svector.7, %class.ptr_vector, ptr, ptr, i32, %class.tmp_app, %class.ptr_vector, %class.ref_vector, %class.ref_vector.28, %class.vector.33, %class.ptr_vector, i32, i8, ptr, ptr, %"class.euf::justification", i32, %class.svector.36, %class.svector.9, %class.ptr_vector, %"struct.euf::egraph::stats", i8, i8, i64, %"class.std::vector", %"class.std::function.41", %"class.std::function.43", %"class.std::function.45", %"class.std::function.47", %"class.std::function.50" }
%class.svector.20 = type { %class.vector.21 }
%class.vector.21 = type { ptr }
%"class.euf::etable" = type { ptr, i8, %class.ptr_vector.13, %class.map }
%class.map = type { %class.table2map }
%class.table2map = type { %class.core_hashtable }
%class.core_hashtable = type <{ ptr, i32, i32, i32, [4 x i8] }>
%class.region = type { ptr, ptr, ptr, ptr, ptr }
%class.scoped_ptr_vector = type { %class.ptr_vector.22 }
%class.ptr_vector.22 = type { %class.vector.23 }
%class.vector.23 = type { ptr }
%class.svector.24 = type { %class.vector.25 }
%class.vector.25 = type { ptr }
%class.tmp_app = type { i32, ptr }
%class.vector.33 = type { ptr }
%"class.euf::justification" = type { i32, %union.anon.34, %union.anon.35 }
%union.anon.34 = type { ptr }
%union.anon.35 = type { ptr }
%class.svector.36 = type { %class.vector.37 }
%class.vector.37 = type { ptr }
%"struct.euf::egraph::stats" = type { i32, i32, i32, i32, i32, i32 }
%"class.std::vector" = type { %"struct.std::_Vector_base" }
%"struct.std::_Vector_base" = type { %"struct.std::_Vector_base<std::function<void (euf::enode *, euf::enode *)>, std::allocator<std::function<void (euf::enode *, euf::enode *)>>>::_Vector_impl" }
%"struct.std::_Vector_base<std::function<void (euf::enode *, euf::enode *)>, std::allocator<std::function<void (euf::enode *, euf::enode *)>>>::_Vector_impl" = type { %"struct.std::_Vector_base<std::function<void (euf::enode *, euf::enode *)>, std::allocator<std::function<void (euf::enode *, euf::enode *)>>>::_Vector_impl_data" }
%"struct.std::_Vector_base<std::function<void (euf::enode *, euf::enode *)>, std::allocator<std::function<void (euf::enode *, euf::enode *)>>>::_Vector_impl_data" = type { ptr, ptr, ptr }
%"class.std::function.41" = type { %"class.std::_Function_base", ptr }
%"class.std::function.43" = type { %"class.std::_Function_base", ptr }
%"class.std::function.45" = type { %"class.std::_Function_base", ptr }
%"class.std::function.47" = type { %"class.std::_Function_base", ptr }
%"class.std::function.50" = type { %"class.std::_Function_base", ptr }
%class.trail_stack = type { %class.ptr_vector.53, %class.svector.7, %class.region }
%class.ptr_vector.53 = type { %class.vector.54 }
%class.vector.54 = type { ptr }
%"struct.euf::solver::stats" = type { i32, i32 }
%class.th_rewriter = type { ptr, %class.params_ref }
%class.params_ref = type { ptr }
%class.ref_vector.28 = type { %class.ref_vector_core.29 }
%class.ref_vector_core.29 = type { %class.ref_manager_wrapper.30, %class.ptr_vector.31 }
%class.ref_manager_wrapper.30 = type { ptr }
%class.ptr_vector.31 = type { %class.vector.32 }
%class.vector.32 = type { ptr }
%class.scoped_ptr = type { ptr }
%"class.std::__cxx11::basic_string" = type { %"struct.std::__cxx11::basic_string<char>::_Alloc_hider", i64, %union.anon }
%"struct.std::__cxx11::basic_string<char>::_Alloc_hider" = type { ptr }
%union.anon = type { i64, [8 x i8] }
%class.ptr_vector.26 = type { %class.vector.27 }
%class.vector.27 = type { ptr }
%class.ptr_vector.55 = type { %class.vector.56 }
%class.vector.56 = type { ptr }
%class.svector.57 = type { %class.vector.58 }
%class.vector.58 = type { ptr }
%class.svector.59 = type { %class.vector.60 }
%class.vector.60 = type { ptr }
%class.svector.7 = type { %class.vector.8 }
%class.vector.8 = type { ptr }
%class.svector.61 = type { %class.vector.62 }
%class.vector.62 = type { ptr }
%class.scoped_ptr_vector.63 = type { %class.ptr_vector.64 }
%class.ptr_vector.64 = type { %class.vector.65 }
%class.vector.65 = type { ptr }
%class.ast_pp_util = type { ptr, %class.obj_hashtable, %class.smt2_pp_environment_dbg, %class.stacked_value, %class.stacked_value, %class.stacked_value, %class.obj_mark, %class.ref_vector, %class.svector.7, %class.decl_collector }
%class.obj_hashtable = type { %class.core_hashtable.base.67, [4 x i8] }
%class.core_hashtable.base.67 = type <{ ptr, i32, i32, i32 }>
%class.smt2_pp_environment_dbg = type { %class.smt2_pp_environment, ptr, %class.arith_util, %class.bv_util, %class.array_util, %class.fpa_util, %class.seq_util, %"class.datatype::util", %"class.datalog::dl_decl_util" }
%class.smt2_pp_environment = type { ptr, %class.smt_renaming }
%class.smt_renaming = type { %class.map.68, %class.map.72 }
%class.map.68 = type { %class.table2map.69 }
%class.table2map.69 = type { %class.core_hashtable.70 }
%class.core_hashtable.70 = type <{ ptr, i32, i32, i32, [4 x i8] }>
%class.map.72 = type { %class.table2map.73 }
%class.table2map.73 = type { %class.core_hashtable.74 }
%class.core_hashtable.74 = type <{ ptr, i32, i32, i32, [4 x i8] }>
%class.arith_util = type { ptr, ptr }
%class.bv_util = type { %class.bv_recognizers, ptr, ptr }
%class.bv_recognizers = type { i32 }
%class.array_util = type { %class.array_recognizers, ptr }
%class.array_recognizers = type { i32 }
%class.fpa_util = type { ptr, ptr, i32, %class.arith_util, %class.bv_util }
%class.seq_util = type { ptr, ptr, ptr, i32, [4 x i8], %"class.seq_util::str", %"class.seq_util::rex" }
%"class.seq_util::str" = type <{ ptr, ptr, i32, [4 x i8] }>
%"class.seq_util::rex" = type { ptr, ptr, i32, %class.vector.76, %class.ref_vector, %"struct.seq_util::rex::info", %"struct.seq_util::rex::info" }
%class.vector.76 = type { ptr }
%"struct.seq_util::rex::info" = type { i32, i8, i32, i32 }
%"class.datatype::util" = type { ptr, i32, ptr, %class.obj_map, %class.obj_map.79, %class.obj_map.84, %class.obj_map.89, %class.obj_map.89, %class.obj_map.89, %class.obj_map.94, %class.obj_map.94, %class.obj_map.94, %class.ref_vector.99, %class.ref_vector_core.104, %class.ptr_vector.107, i32, %class.ptr_vector.109 }
%class.obj_map = type { %class.core_hashtable.77 }
%class.core_hashtable.77 = type <{ ptr, i32, i32, i32, [4 x i8] }>
%class.obj_map.79 = type { %class.core_hashtable.80 }
%class.core_hashtable.80 = type <{ ptr, i32, i32, i32, [4 x i8] }>
%class.obj_map.84 = type { %class.core_hashtable.85 }
%class.core_hashtable.85 = type <{ ptr, i32, i32, i32, [4 x i8] }>
%class.obj_map.89 = type { %class.core_hashtable.90 }
%class.core_hashtable.90 = type <{ ptr, i32, i32, i32, [4 x i8] }>
%class.obj_map.94 = type { %class.core_hashtable.95 }
%class.core_hashtable.95 = type <{ ptr, i32, i32, i32, [4 x i8] }>
%class.ref_vector.99 = type { %class.ref_vector_core.100 }
%class.ref_vector_core.100 = type { %class.ref_manager_wrapper.101, %class.ptr_vector.102 }
%class.ref_manager_wrapper.101 = type { ptr }
%class.ptr_vector.102 = type { %class.vector.103 }
%class.vector.103 = type { ptr }
%class.ref_vector_core.104 = type { %class.ptr_vector.105 }
%class.ptr_vector.105 = type { %class.vector.106 }
%class.vector.106 = type { ptr }
%class.ptr_vector.107 = type { %class.vector.108 }
%class.vector.108 = type { ptr }
%class.ptr_vector.109 = type { %class.vector.110 }
%class.vector.110 = type { ptr }
%"class.datalog::dl_decl_util" = type <{ ptr, %class.scoped_ptr.111, %class.scoped_ptr.112, i32, [4 x i8] }>
%class.scoped_ptr.111 = type { ptr }
%class.scoped_ptr.112 = type { ptr }
%class.stacked_value = type { i32, %class.vector.113 }
%class.vector.113 = type { ptr }
%class.obj_mark = type { %struct.default_t2uint, %class.bit_vector }
%struct.default_t2uint = type { i8 }
%class.bit_vector = type { i32, i32, ptr }
%class.decl_collector = type { ptr, %class.lim_svector, %class.lim_svector.115, %class.lim_svector.115, %class.ast_mark, %class.ref_vector.99, %class.svector.7, i32, i32, %"class.datatype::util", %class.array_util, i32, %class.ptr_vector.102 }
%class.lim_svector = type { %class.svector.114, %class.svector.7 }
%class.svector.114 = type { %class.vector.110 }
%class.lim_svector.115 = type { %class.svector.116, %class.svector.7 }
%class.svector.116 = type { %class.vector.32 }
%class.ast_mark = type { ptr, %class.obj_mark, %class.obj_mark.117 }
%class.obj_mark.117 = type { %"struct.ast_mark::decl2uint", %class.bit_vector }
%"struct.ast_mark::decl2uint" = type { i8 }
%"class.euf::smt_proof_checker" = type <{ ptr, %class.params_ref, %"class.euf::theory_checker", %class.scoped_ptr.125, %class.symbol, %"class.sat::solver", %"class.sat::drat", %class.svector, %class.svector, i8, [7 x i8], %class.map.172, %class.map.172, i32, [4 x i8] }>
%"class.euf::theory_checker" = type { ptr, %class.scoped_ptr_vector.118, %class.map.121 }
%class.scoped_ptr_vector.118 = type { %class.ptr_vector.119 }
%class.ptr_vector.119 = type { %class.vector.120 }
%class.vector.120 = type { ptr }
%class.map.121 = type { %class.table2map.122 }
%class.table2map.122 = type { %class.core_hashtable.123 }
%class.core_hashtable.123 = type <{ ptr, i32, i32, i32, [4 x i8] }>
%class.scoped_ptr.125 = type { ptr }
%"class.sat::solver" = type { %"class.sat::solver_core", i8, [7 x i8], %"struct.sat::config", %"struct.sat::stats", %class.scoped_ptr.126, %class.scoped_ptr.127, ptr, %"class.sat::drat", [2 x %"class.sat::clause_allocator"], i8, %class.random_gen, %"class.sat::cleaner", %class.svector.134, %"class.sat::model_converter", i8, %"class.sat::simplifier", %"class.sat::scc", %"class.sat::asymm_branch", %"class.sat::probing", i8, [7 x i8], %"class.sat::mus", %"class.sat::binspr", i8, i8, [6 x i8], %"class.sat::justification", %"class.sat::literal", %class.ptr_vector.15, %class.ptr_vector.15, i32, %class.svector.7, %class.svector.7, %class.svector.7, %class.svector.7, %class.vector.157, %class.svector.134, %class.svector.158, %class.svector.9, %class.svector.9, %class.svector.9, %class.svector.9, %class.svector.9, %class.svector.7, %class.svector.7, i32, %class.svector, %class.svector.7, i32, %class.svector.160, %class.svector.160, %class.svector.160, %class.svector.160, %class.svector.160, i32, double, %class.svector.9, %class.svector.9, %class.svector.9, %class.svector.143, i32, i32, i32, i32, i32, i32, %"struct.sat::backoff", i32, i32, %"struct.sat::backoff", %"struct.sat::backoff", %class.var_queue, i32, i32, i32, %class.ema, %class.ema, %class.ema, %class.ema, %class.ema, %class.svector, %class.svector.145, %"class.std::__cxx11::basic_string", i8, %class.visit_helper, %class.svector.162, %class.scoped_limit_trail, %class.stopwatch, %class.params_ref, %"struct.sat::no_drat_params", %class.scoped_ptr.155, %class.svector, %"class.sat::literal_set", %"class.sat::literal_set", %class.svector, i32, i32, i32, i32, i8, ptr, ptr, %class.statistics, i32, i32, i32, i32, i8, i32, i32, i32, i32, i32, i32, i32, double, i32, double, i8, i8, %class.svector, i8, %class.svector.160, i32, i32, i32, %class.svector, %class.svector, %class.svector.143, %class.svector.7, %class.approx_set_tpl, %class.svector, %class.svector, %class.vector.17, %class.svector, %class.svector.153, %class.u_map, %class.svector }
%"class.sat::solver_core" = type { ptr, ptr }
%"struct.sat::config" = type <{ i64, i32, i32, i32, i8, [3 x i8], i32, i32, double, i32, i8, [3 x i8], i32, i8, [3 x i8], i32, [4 x i8], double, double, i32, i32, double, double, i32, [4 x i8], %class.symbol, double, i32, i32, i8, [3 x i8], i32, i32, i8, [3 x i8], i32, i8, [3 x i8], i32, i8, [3 x i8], i32, i8, i8, i8, i8, i32, i8, i8, i8, i8, i8, i8, i8, i8, i32, i8, i8, i8, i8, i32, double, i32, [4 x i8], double, double, double, double, i32, i8, i8, [2 x i8], double, i8, i8, [2 x i8], i32, double, i32, i32, i32, i32, i32, i32, i32, i32, i8, i8, i8, i8, i32, i32, i8, i8, i8, i8, i8, i8, i8, [5 x i8], %class.symbol, i8, i8, i8, i8, i8, i8, [2 x i8], i32, i32, i32, i8, [3 x i8], double, double, double, double, double, i8, [7 x i8] }>
%"struct.sat::stats" = type { i32, i32, i32, i32, i32, i32, i32, i32, i32, i32, i32, i32, i32, i32, i32, i32, i32, i32, i32, i32, i32 }
%class.scoped_ptr.126 = type { ptr }
%class.scoped_ptr.127 = type { ptr }
%class.random_gen = type { i32 }
%"class.sat::cleaner" = type { ptr, i32, i32, i32, i32 }
%"class.sat::model_converter" = type { %class.vector.136, i32, %class.svector.9, ptr, %class.svector.137 }
%class.vector.136 = type { ptr }
%class.svector.137 = type { %class.vector.138 }
%class.vector.138 = type { ptr }
%"class.sat::simplifier" = type { ptr, i32, %"class.sat::use_list", %"class.sat::ext_use_list", %"class.sat::clause_set", %class.svector.141, i32, %class.tracked_uint_set, i8, %"class.sat::tmp_clause", %class.svector.143, i32, i32, i8, i8, i8, i8, i32, i8, i8, i32, i8, i32, i8, i8, i32, i32, i32, i32, i32, i32, i32, i32, i32, i32, i8, i32, i8, i8, i32, i32, i32, i32, i32, i32, i32, i32, i32, i32, i32, i8, i32, %class.ptr_vector.15, %class.svector, %class.svector.145, %class.svector.145, %class.svector }
%"class.sat::use_list" = type { %class.vector.139 }
%class.vector.139 = type { ptr }
%"class.sat::ext_use_list" = type { %class.vector.140 }
%class.vector.140 = type { ptr }
%"class.sat::clause_set" = type { %class.svector.7, %class.ptr_vector.15 }
%class.svector.141 = type { %class.vector.142 }
%class.vector.142 = type { ptr }
%class.tracked_uint_set = type { %class.svector.143, %class.svector.7 }
%"class.sat::tmp_clause" = type { ptr }
%"class.sat::scc" = type { ptr, i8, i8, i32, i32, %"class.sat::big" }
%"class.sat::big" = type { ptr, i32, %class.vector.147, %class.svector.9, %class.svector.148, %class.svector.148, %class.svector, %class.svector, i8, i8, %class.vector.147 }
%class.svector.148 = type { %class.vector.149 }
%class.vector.149 = type { ptr }
%class.vector.147 = type { ptr }
%"class.sat::asymm_branch" = type { ptr, %class.params_ref, i64, %class.random_gen, i32, i32, i8, i32, i32, i8, i8, i64, i32, i32, i32, %class.svector, %class.svector, %class.svector.150, %class.svector.150, %class.svector, %class.svector }
%class.svector.150 = type { %class.vector.151 }
%class.vector.151 = type { ptr }
%"class.sat::probing" = type { ptr, i32, %"class.sat::literal_set", %class.svector, i32, i8, i32, i8, i8, i64, i32, %class.vector.152, %class.svector.153, %"class.sat::big" }
%class.vector.152 = type { ptr }
%"class.sat::mus" = type <{ ptr, %class.svector, %class.svector, i8, [7 x i8], %class.svector.134, i32, [4 x i8] }>
%"class.sat::binspr" = type <{ ptr, %class.scoped_ptr.155, i32, i32, %class.vector.156, i32, i32, %class.svector.9, %class.svector.9, %class.svector, %class.svector, i32, i32, i32, i32, i32, [4 x i32], [5 x i32], [5 x i32], [4 x i8] }>
%class.vector.156 = type { ptr }
%"class.sat::justification" = type <{ i32, [4 x i8], i64, i32, [4 x i8] }>
%class.vector.157 = type { ptr }
%class.svector.134 = type { %class.vector.135 }
%class.vector.135 = type { ptr }
%class.svector.158 = type { %class.vector.159 }
%class.vector.159 = type { ptr }
%"struct.sat::backoff" = type { i32, i32, i32, i32, i32 }
%class.var_queue = type { %class.heap }
%class.heap = type { %"struct.var_queue<svector<unsigned int>>::lt", %class.svector.148, %class.svector.148 }
%"struct.var_queue<svector<unsigned int>>::lt" = type { ptr }
%class.ema = type { double, double, double, i32, i32 }
%class.svector.145 = type { %class.vector.146 }
%class.vector.146 = type { ptr }
%class.visit_helper = type { %class.svector.7, i32, i32 }
%class.svector.162 = type { %class.vector.163 }
%class.vector.163 = type { ptr }
%class.scoped_limit_trail = type { %class.svector.7, i32, i32 }
%class.stopwatch = type <{ %"class.std::chrono::time_point", %"class.std::chrono::duration", i8, [7 x i8] }>
%"class.std::chrono::time_point" = type { %"class.std::chrono::duration" }
%"class.std::chrono::duration" = type { i64 }
%"struct.sat::no_drat_params" = type { %class.params_ref }
%class.scoped_ptr.155 = type { ptr }
%"class.sat::literal_set" = type { %class.tracked_uint_set }
%class.statistics = type { %class.svector.164, %class.svector.166 }
%class.svector.164 = type { %class.vector.165 }
%class.vector.165 = type { ptr }
%class.svector.166 = type { %class.vector.167 }
%class.vector.167 = type { ptr }
%class.svector.160 = type { %class.vector.161 }
%class.vector.161 = type { ptr }
%class.svector.143 = type { %class.vector.144 }
%class.vector.144 = type { ptr }
%class.approx_set_tpl = type { i32 }
%class.svector.153 = type { %class.vector.154 }
%class.vector.154 = type { ptr }
%class.u_map = type { %class.map.168 }
%class.map.168 = type { %class.table2map.169 }
%class.table2map.169 = type { %class.core_hashtable.170 }
%class.core_hashtable.170 = type <{ ptr, i32, i32, i32, [4 x i8] }>
%"class.sat::drat" = type { ptr, %class.svector.128, ptr, %"class.sat::clause_allocator", ptr, ptr, %class.svector.130, %class.svector.132, %class.vector.17, %class.svector.134, i8, i8, i8, i8, i8, %"struct.sat::drat::stats" }
%class.svector.128 = type { %class.vector.129 }
%class.vector.129 = type { ptr }
%class.svector.130 = type { %class.vector.131 }
%class.vector.131 = type { ptr }
%class.svector.132 = type { %class.vector.133 }
%class.vector.133 = type { ptr }
%"struct.sat::drat::stats" = type { i32, i32, i32, i32 }
%class.map.172 = type { %class.table2map.173 }
%class.table2map.173 = type { %class.core_hashtable.174 }
%class.core_hashtable.174 = type <{ ptr, i32, i32, i32, [4 x i8] }>
%class.svector = type { %class.vector }
%class.svector.176 = type { %class.vector.177 }
%class.vector.177 = type { ptr }
%class.vector.178 = type { ptr }
%class.ref_vector = type { %class.ref_vector_core }
%class.ref_vector_core = type { %class.ref_manager_wrapper, %class.ptr_vector.26 }
%class.ref_manager_wrapper = type { ptr }
%class.obj_map.179 = type { %class.core_hashtable.180 }
%class.core_hashtable.180 = type <{ ptr, i32, i32, i32, [4 x i8] }>
%class.ref = type { ptr }
%class.scoped_ptr.184 = type { ptr }

; Function Attrs: mustprogress nounwind uwtable
define linkonce_odr hidden noundef zeroext i1 @_ZNK6vectorIN3euf6egraph8to_mergeELb0EjE5emptyEv(ptr noundef nonnull align 8 dereferenceable(8) %this) #4 comdat align 2 {
entry:
  %this.addr = alloca ptr, align 8
  store ptr %this, ptr %this.addr, align 8
  %this1 = load ptr, ptr %this.addr, align 8
  %m_data = getelementptr inbounds %class.vector.21, ptr %this1, i32 0, i32 0
  %0 = load ptr, ptr %m_data, align 8
  %cmp = icmp eq ptr %0, null
  br i1 %cmp, label %lor.end, label %lor.rhs

lor.rhs:                                          ; preds = %entry
  %m_data2 = getelementptr inbounds %class.vector.21, ptr %this1, i32 0, i32 0
  %1 = load ptr, ptr %m_data2, align 8
  %arrayidx = getelementptr inbounds i32, ptr %1, i64 -1
  %2 = load i32, ptr %arrayidx, align 4
  %cmp3 = icmp eq i32 %2, 0
  br label %lor.end

lor.end:                                          ; preds = %lor.rhs, %entry
  %3 = phi i1 [ true, %entry ], [ %cmp3, %lor.rhs ]
  ret i1 %3
}

; Function Attrs: mustprogress uwtable
define linkonce_odr hidden noundef zeroext i1 @_ZNK3euf6egraph13can_propagateEv(ptr noundef nonnull align 8 dereferenceable(536) %this) #5 comdat align 2 {
entry:
  %this.addr = alloca ptr, align 8
  store ptr %this, ptr %this.addr, align 8
  %this1 = load ptr, ptr %this.addr, align 8
  %m_to_merge = getelementptr inbounds %"class.euf::egraph", ptr %this1, i32 0, i32 1
  %call = call noundef zeroext i1 @_ZNK6vectorIN3euf6egraph8to_mergeELb0EjE5emptyEv(ptr noundef nonnull align 8 dereferenceable(8) %m_to_merge)
  %lnot = xor i1 %call, true
  ret i1 %lnot
}

; Function Attrs: mustprogress uwtable
define hidden noundef zeroext i1 @_ZN3euf6solver13can_propagateEv(ptr noundef nonnull align 8 dereferenceable(9136) %this) unnamed_addr #5 align 2 {
entry:
  %this.addr = alloca ptr, align 8
  store ptr %this, ptr %this.addr, align 8
  %this1 = load ptr, ptr %this.addr, align 8
  %m_egraph = getelementptr inbounds %"class.euf::solver", ptr %this1, i32 0, i32 11
  %call = call noundef zeroext i1 @_ZNK3euf6egraph13can_propagateEv(ptr noundef nonnull align 8 dereferenceable(536) %m_egraph)
  ret i1 %call
}