; Function Attrs: mustprogress nofree norecurse nosync nounwind willreturn memory(read, inaccessiblemem: none) uwtable
define hidden noundef zeroext i1 @_ZN3euf6solver13can_propagateEv(ptr nocapture noundef nonnull readonly align 8 dereferenceable(9136) %this) unnamed_addr #8 align 2 {
entry:
  %m_to_merge.i = getelementptr inbounds i8, ptr %this, i64 1664
  %0 = load ptr, ptr %m_to_merge.i, align 8
  %cmp.i.i = icmp eq ptr %0, null
  br i1 %cmp.i.i, label %_ZNK3euf6egraph13can_propagateEv.exit, label %lor.rhs.i.i

lor.rhs.i.i:                                      ; preds = %entry
  %arrayidx.i.i = getelementptr inbounds i8, ptr %0, i64 -4
  %1 = load i32, ptr %arrayidx.i.i, align 4
  %cmp3.i.i = icmp ne i32 %1, 0
  br label %_ZNK3euf6egraph13can_propagateEv.exit

_ZNK3euf6egraph13can_propagateEv.exit:            ; preds = %entry, %lor.rhs.i.i
  %lnot.i = phi i1 [ false, %entry ], [ %cmp3.i.i, %lor.rhs.i.i ]
  ret i1 %lnot.i
}